target datalayout = "e-m:e-p270:32:32-p271:32:32-p272:64:64-i64:64-i128:128-f80:128-n8:16:32:64-S128"
target triple = "x86_64-pc-linux-gnu"

%struct.ident_t = type { i32, i32, i32, i32, ptr }
%"struct.faiss::IndexBinaryHashStats" = type { i64, i64, i64, i64 }
%"class.std::__cxx11::basic_string" = type { %"struct.std::__cxx11::basic_string<char>::_Alloc_hider", i64, %union.anon }
%"struct.std::__cxx11::basic_string<char>::_Alloc_hider" = type { ptr }
%union.anon = type { i64, [8 x i8] }

@.str.2 = private unnamed_addr constant [63 x i8] c"Error: '%s' failed: search params not supported for this index\00", align 1
@.str.3 = private unnamed_addr constant [8 x i8] c"!params\00", align 1
@.str.4 = private unnamed_addr constant [115 x i8] c"generated/home/dtcxzyw/WorkSpace/Projects/compilers/llvm-opt-benchmark/bench/faiss/faiss/faiss/IndexBinaryHash.cpp\00", align 1
@_ZTIN5faiss14FaissExceptionE = external constant ptr
@4 = private unnamed_addr constant %struct.ident_t { i32 0, i32 2, i32 0, i32 22, ptr @0 }, align 8
@_ZN5faiss21indexBinaryHash_statsE = global %"struct.faiss::IndexBinaryHashStats" zeroinitializer, align 8

; Function Attrs: mustprogress uwtable
define void @_ZNK5faiss20IndexBinaryMultiHash12range_searchElPKhiPNS_17RangeSearchResultEPKNS_16SearchParametersE(ptr noundef nonnull align 8 dereferenceable(84) %0, i64 noundef %1, ptr noundef %2, i32 noundef %3, ptr noundef %4, ptr noundef %5) unnamed_addr #2 align 2 personality ptr @__gxx_personality_v0 {
  %7 = alloca ptr, align 8
  %8 = alloca i64, align 8
  %9 = alloca ptr, align 8
  %10 = alloca i32, align 4
  %11 = alloca ptr, align 8
  %12 = alloca ptr, align 8
  %13 = alloca %"class.std::__cxx11::basic_string", align 8
  %14 = alloca i32, align 4
  %15 = alloca ptr, align 8
  %16 = alloca i32, align 4
  %17 = alloca i64, align 8
  %18 = alloca i64, align 8
  %19 = alloca i64, align 8
  %20 = alloca i32, align 4
  %21 = alloca i32, align 4
  %22 = call i32 @__kmpc_global_thread_num(ptr @4)
  store ptr %0, ptr %7, align 8
  store i64 %1, ptr %8, align 8
  store ptr %2, ptr %9, align 8
  store i32 %3, ptr %10, align 4
  store ptr %4, ptr %11, align 8
  store ptr %5, ptr %12, align 8
  %23 = load ptr, ptr %7, align 8
  br label %24

24:                                               ; preds = %6
  %25 = load ptr, ptr %12, align 8
  %26 = icmp ne ptr %25, null
  br i1 %26, label %27, label %50

27:                                               ; preds = %24
  br label %28

28:                                               ; preds = %27
  call void @_ZNSt7__cxx1112basic_stringIcSt11char_traitsIcESaIcEEC1Ev(ptr noundef nonnull align 8 dereferenceable(32) %13) #13
  %29 = call i32 (ptr, i64, ptr, ...) @snprintf(ptr noundef null, i64 noundef 0, ptr noundef @.str.2, ptr noundef @.str.3) #13
  store i32 %29, ptr %14, align 4
  %30 = load i32, ptr %14, align 4
  %31 = add nsw i32 %30, 1
  %32 = sext i32 %31 to i64
  invoke void @_ZNSt7__cxx1112basic_stringIcSt11char_traitsIcESaIcEE6resizeEm(ptr noundef nonnull align 8 dereferenceable(32) %13, i64 noundef %32)
          to label %33 unwind label %40

33:                                               ; preds = %28
  %34 = invoke noundef nonnull align 1 dereferenceable(1) ptr @_ZNSt7__cxx1112basic_stringIcSt11char_traitsIcESaIcEEixEm(ptr noundef nonnull align 8 dereferenceable(32) %13, i64 noundef 0)
          to label %35 unwind label %40

35:                                               ; preds = %33
  %36 = call noundef i64 @_ZNKSt7__cxx1112basic_stringIcSt11char_traitsIcESaIcEE4sizeEv(ptr noundef nonnull align 8 dereferenceable(32) %13) #13
  %37 = call i32 (ptr, i64, ptr, ...) @snprintf(ptr noundef %34, i64 noundef %36, ptr noundef @.str.2, ptr noundef @.str.3) #13
  %38 = call ptr @__cxa_allocate_exception(i64 40) #13
  invoke void @_ZN5faiss14FaissExceptionC1ERKNSt7__cxx1112basic_stringIcSt11char_traitsIcESaIcEEEPKcSA_i(ptr noundef nonnull align 8 dereferenceable(40) %38, ptr noundef nonnull align 8 dereferenceable(32) %13, ptr noundef @__PRETTY_FUNCTION__._ZNK5faiss20IndexBinaryMultiHash12range_searchElPKhiPNS_17RangeSearchResultEPKNS_16SearchParametersE, ptr noundef @.str.4, i32 noundef 417)
          to label %39 unwind label %44

39:                                               ; preds = %35
  invoke void @__cxa_throw(ptr %38, ptr @_ZTIN5faiss14FaissExceptionE, ptr @_ZN5faiss14FaissExceptionD2Ev) #19
          to label %74 unwind label %40

40:                                               ; preds = %39, %33, %28
  %41 = landingpad { ptr, i32 }
          cleanup
  %42 = extractvalue { ptr, i32 } %41, 0
  store ptr %42, ptr %15, align 8
  %43 = extractvalue { ptr, i32 } %41, 1
  store i32 %43, ptr %16, align 4
  br label %48

44:                                               ; preds = %35
  %45 = landingpad { ptr, i32 }
          cleanup
  %46 = extractvalue { ptr, i32 } %45, 0
  store ptr %46, ptr %15, align 8
  %47 = extractvalue { ptr, i32 } %45, 1
  store i32 %47, ptr %16, align 4
  call void @__cxa_free_exception(ptr %38) #13
  br label %48

48:                                               ; preds = %44, %40
  call void @_ZNSt7__cxx1112basic_stringIcSt11char_traitsIcESaIcEED1Ev(ptr noundef nonnull align 8 dereferenceable(32) %13) #13
  br label %69

49:                                               ; No predecessors!
  br label %50

50:                                               ; preds = %49, %24
  br label %51

51:                                               ; preds = %50
  store i64 0, ptr %17, align 8
  store i64 0, ptr %18, align 8
  store i64 0, ptr %19, align 8
  %52 = load i64, ptr %8, align 8
  %53 = icmp sgt i64 %52, 100
  br i1 %53, label %54, label %55

54:                                               ; preds = %51
  call void (ptr, i32, ptr, ...) @__kmpc_fork_call(ptr @4, i32 8, ptr @_ZNK5faiss20IndexBinaryMultiHash12range_searchElPKhiPNS_17RangeSearchResultEPKNS_16SearchParametersE.omp_outlined, ptr %11, ptr %8, ptr %10, ptr %9, ptr %23, ptr %19, ptr %17, ptr %18)
  br label %56

55:                                               ; preds = %51
  call void @__kmpc_serialized_parallel(ptr @4, i32 %22)
  store i32 %22, ptr %20, align 4
  store i32 0, ptr %21, align 4
  call void @_ZNK5faiss20IndexBinaryMultiHash12range_searchElPKhiPNS_17RangeSearchResultEPKNS_16SearchParametersE.omp_outlined(ptr %20, ptr %21, ptr %11, ptr %8, ptr %10, ptr %9, ptr %23, ptr %19, ptr %17, ptr %18) #13
  call void @__kmpc_end_serialized_parallel(ptr @4, i32 %22)
  br label %56

56:                                               ; preds = %55, %54
  %57 = load i64, ptr %8, align 8
  %58 = load i64, ptr @_ZN5faiss21indexBinaryHash_statsE, align 8
  %59 = add i64 %58, %57
  store i64 %59, ptr @_ZN5faiss21indexBinaryHash_statsE, align 8
  %60 = load i64, ptr %19, align 8
  %61 = load i64, ptr getelementptr inbounds (%"struct.faiss::IndexBinaryHashStats", ptr @_ZN5faiss21indexBinaryHash_statsE, i32 0, i32 1), align 8
  %62 = add i64 %61, %60
  store i64 %62, ptr getelementptr inbounds (%"struct.faiss::IndexBinaryHashStats", ptr @_ZN5faiss21indexBinaryHash_statsE, i32 0, i32 1), align 8
  %63 = load i64, ptr %17, align 8
  %64 = load i64, ptr getelementptr inbounds (%"struct.faiss::IndexBinaryHashStats", ptr @_ZN5faiss21indexBinaryHash_statsE, i32 0, i32 2), align 8
  %65 = add i64 %64, %63
  store i64 %65, ptr getelementptr inbounds (%"struct.faiss::IndexBinaryHashStats", ptr @_ZN5faiss21indexBinaryHash_statsE, i32 0, i32 2), align 8
  %66 = load i64, ptr %18, align 8
  %67 = load i64, ptr getelementptr inbounds (%"struct.faiss::IndexBinaryHashStats", ptr @_ZN5faiss21indexBinaryHash_statsE, i32 0, i32 3), align 8
  %68 = add i64 %67, %66
  store i64 %68, ptr getelementptr inbounds (%"struct.faiss::IndexBinaryHashStats", ptr @_ZN5faiss21indexBinaryHash_statsE, i32 0, i32 3), align 8
  ret void

69:                                               ; preds = %48
  %70 = load ptr, ptr %15, align 8
  %71 = load i32, ptr %16, align 4
  %72 = insertvalue { ptr, i32 } poison, ptr %70, 0
  %73 = insertvalue { ptr, i32 } %72, i32 %71, 1
  resume { ptr, i32 } %73

74:                                               ; preds = %39
  unreachable
}