; Function Attrs: mustprogress uwtable
define void @_ZNK5faiss20IndexBinaryMultiHash12range_searchElPKhiPNS_17RangeSearchResultEPKNS_16SearchParametersE(ptr noundef nonnull align 8 dereferenceable(84) %0, i64 noundef %1, ptr noundef %2, i32 noundef %3, ptr noundef %4, ptr noundef readnone %5) unnamed_addr #2 align 2 personality ptr @__gxx_personality_v0 {
  %7 = alloca i64, align 8
  %8 = alloca ptr, align 8
  %9 = alloca i32, align 4
  %10 = alloca ptr, align 8
  %11 = alloca %"class.std::__cxx11::basic_string", align 8
  %12 = alloca i64, align 8
  %13 = alloca i64, align 8
  %14 = alloca i64, align 8
  %15 = alloca i32, align 4
  %16 = tail call i32 @__kmpc_global_thread_num(ptr nonnull @4)
  store i64 %1, ptr %7, align 8
  store ptr %2, ptr %8, align 8
  store i32 %3, ptr %9, align 4
  store ptr %4, ptr %10, align 8
  %.not = icmp eq ptr %5, null
  br i1 %.not, label %33, label %17

17:                                               ; preds = %6
  call void @_ZNSt7__cxx1112basic_stringIcSt11char_traitsIcESaIcEEC1Ev(ptr noundef nonnull align 8 dereferenceable(32) %11) #12
  %18 = call i32 (ptr, i64, ptr, ...) @snprintf(ptr noundef null, i64 noundef 0, ptr noundef nonnull @.str.2, ptr noundef nonnull @.str.3) #12
  %19 = add nsw i32 %18, 1
  %20 = sext i32 %19 to i64
  invoke void @_ZNSt7__cxx1112basic_stringIcSt11char_traitsIcESaIcEE6resizeEm(ptr noundef nonnull align 8 dereferenceable(32) %11, i64 noundef %20)
          to label %21 unwind label %28

21:                                               ; preds = %17
  %22 = invoke noundef nonnull align 1 dereferenceable(1) ptr @_ZNSt7__cxx1112basic_stringIcSt11char_traitsIcESaIcEEixEm(ptr noundef nonnull align 8 dereferenceable(32) %11, i64 noundef 0)
          to label %23 unwind label %28

23:                                               ; preds = %21
  %24 = call noundef i64 @_ZNKSt7__cxx1112basic_stringIcSt11char_traitsIcESaIcEE4sizeEv(ptr noundef nonnull align 8 dereferenceable(32) %11) #12
  %25 = call i32 (ptr, i64, ptr, ...) @snprintf(ptr noundef nonnull %22, i64 noundef %24, ptr noundef nonnull @.str.2, ptr noundef nonnull @.str.3) #12
  %26 = call ptr @__cxa_allocate_exception(i64 40) #12
  invoke void @_ZN5faiss14FaissExceptionC1ERKNSt7__cxx1112basic_stringIcSt11char_traitsIcESaIcEEEPKcSA_i(ptr noundef nonnull align 8 dereferenceable(40) %26, ptr noundef nonnull align 8 dereferenceable(32) %11, ptr noundef nonnull @__PRETTY_FUNCTION__._ZNK5faiss20IndexBinaryMultiHash12range_searchElPKhiPNS_17RangeSearchResultEPKNS_16SearchParametersE, ptr noundef nonnull @.str.4, i32 noundef 417)
          to label %27 unwind label %30

27:                                               ; preds = %23
  invoke void @__cxa_throw(ptr nonnull %26, ptr nonnull @_ZTIN5faiss14FaissExceptionE, ptr nonnull @_ZN5faiss14FaissExceptionD2Ev) #24
          to label %50 unwind label %28

28:                                               ; preds = %27, %21, %17
  %29 = landingpad { ptr, i32 }
          cleanup
  br label %32

30:                                               ; preds = %23
  %31 = landingpad { ptr, i32 }
          cleanup
  call void @__cxa_free_exception(ptr %26) #12
  br label %32

32:                                               ; preds = %30, %28
  %.pn = phi { ptr, i32 } [ %29, %28 ], [ %31, %30 ]
  call void @_ZNSt7__cxx1112basic_stringIcSt11char_traitsIcESaIcEED1Ev(ptr noundef nonnull align 8 dereferenceable(32) %11) #12
  resume { ptr, i32 } %.pn

33:                                               ; preds = %6
  store i64 0, ptr %12, align 8
  store i64 0, ptr %13, align 8
  store i64 0, ptr %14, align 8
  %34 = icmp sgt i64 %1, 100
  br i1 %34, label %35, label %36

35:                                               ; preds = %33
  call void (ptr, i32, ptr, ...) @__kmpc_fork_call(ptr nonnull @4, i32 8, ptr nonnull @_ZNK5faiss20IndexBinaryMultiHash12range_searchElPKhiPNS_17RangeSearchResultEPKNS_16SearchParametersE.omp_outlined, ptr nonnull %10, ptr nonnull %7, ptr nonnull %9, ptr nonnull %8, ptr nonnull %0, ptr nonnull %14, ptr nonnull %12, ptr nonnull %13)
  %.pre = load i64, ptr %7, align 8
  br label %37

36:                                               ; preds = %33
  tail call void @__kmpc_serialized_parallel(ptr nonnull @4, i32 %16)
  store i32 %16, ptr %15, align 4
  call void @_ZNK5faiss20IndexBinaryMultiHash12range_searchElPKhiPNS_17RangeSearchResultEPKNS_16SearchParametersE.omp_outlined(ptr nonnull %15, ptr nonnull poison, ptr %10, ptr %7, ptr %9, ptr %8, ptr nonnull %0, ptr %14, ptr %12, ptr %13) #12
  tail call void @__kmpc_end_serialized_parallel(ptr nonnull @4, i32 %16)
  br label %37

37:                                               ; preds = %36, %35
  %38 = phi i64 [ %1, %36 ], [ %.pre, %35 ]
  %39 = load i64, ptr @_ZN5faiss21indexBinaryHash_statsE, align 8
  %40 = add i64 %39, %38
  store i64 %40, ptr @_ZN5faiss21indexBinaryHash_statsE, align 8
  %41 = load i64, ptr %14, align 8
  %42 = load i64, ptr getelementptr inbounds (%"struct.faiss::IndexBinaryHashStats", ptr @_ZN5faiss21indexBinaryHash_statsE, i64 0, i32 1), align 8
  %43 = add i64 %42, %41
  store i64 %43, ptr getelementptr inbounds (%"struct.faiss::IndexBinaryHashStats", ptr @_ZN5faiss21indexBinaryHash_statsE, i64 0, i32 1), align 8
  %44 = load i64, ptr %12, align 8
  %45 = load i64, ptr getelementptr inbounds (%"struct.faiss::IndexBinaryHashStats", ptr @_ZN5faiss21indexBinaryHash_statsE, i64 0, i32 2), align 8
  %46 = add i64 %45, %44
  store i64 %46, ptr getelementptr inbounds (%"struct.faiss::IndexBinaryHashStats", ptr @_ZN5faiss21indexBinaryHash_statsE, i64 0, i32 2), align 8
  %47 = load i64, ptr %13, align 8
  %48 = load i64, ptr getelementptr inbounds (%"struct.faiss::IndexBinaryHashStats", ptr @_ZN5faiss21indexBinaryHash_statsE, i64 0, i32 3), align 8
  %49 = add i64 %48, %47
  store i64 %49, ptr getelementptr inbounds (%"struct.faiss::IndexBinaryHashStats", ptr @_ZN5faiss21indexBinaryHash_statsE, i64 0, i32 3), align 8
  ret void

50:                                               ; preds = %27
  unreachable
}